; Function Attrs: nounwind uwtable
define internal void @ma_async_notification_event__on_signal(ptr noundef %0) #7 {
  %2 = icmp eq ptr %0, null
  br i1 %2, label %ma_async_notification_event_signal.exit, label %3

3:                                                ; preds = %1
  %4 = getelementptr inbounds nuw i8, ptr %0, i64 8
  %5 = getelementptr inbounds nuw i8, ptr %0, i64 16
  %6 = tail call i32 @pthread_mutex_lock(ptr noundef nonnull %5) #69
  store i32 1, ptr %4, align 8, !tbaa !41
  %7 = getelementptr inbounds nuw i8, ptr %0, i64 56
  %8 = tail call i32 @pthread_cond_signal(ptr noundef nonnull %7) #69
  %9 = tail call i32 @pthread_mutex_unlock(ptr noundef nonnull %5) #69
  br label %ma_async_notification_event_signal.exit

ma_async_notification_event_signal.exit:          ; preds = %1, %3
  ret void
}